; Function Attrs: mustprogress uwtable
define dso_local void @_ZN22btDeformableBodySolver16updateSoftBodiesEv(ptr noundef nonnull readonly align 8 captures(none) dereferenceable(609) %0) unnamed_addr #4 align 2 personality ptr @__gxx_personality_v0 {
  %2 = alloca %class.CProfileSample, align 1
  call void @llvm.lifetime.start.p0(i64 1, ptr nonnull %2) #27
  call void @_ZN14CProfileSampleC1EPKc(ptr noundef nonnull align 1 dereferenceable(1) %2, ptr noundef nonnull @.str.12)
  %3 = getelementptr inbounds nuw i8, ptr %0, i64 156
  %4 = load i32, ptr %3, align 4, !tbaa !96
  %5 = icmp sgt i32 %4, 0
  br i1 %5, label %.lr.ph, label %._crit_edge

.lr.ph:                                           ; preds = %1
  %6 = getelementptr inbounds nuw i8, ptr %0, i64 168
  br label %7

._crit_edge:                                      ; preds = %_ZNK17btCollisionObject8isActiveEv.exit, %1
  call void @_ZN14CProfileSampleD1Ev(ptr noundef nonnull align 1 dereferenceable(1) %2) #27
  call void @llvm.lifetime.end.p0(i64 1, ptr nonnull %2) #27
  ret void

7:                                                ; preds = %.lr.ph, %_ZNK17btCollisionObject8isActiveEv.exit
  %8 = phi i32 [ %4, %.lr.ph ], [ %17, %_ZNK17btCollisionObject8isActiveEv.exit ]
  %indvars.iv = phi i64 [ 0, %.lr.ph ], [ %indvars.iv.next, %_ZNK17btCollisionObject8isActiveEv.exit ]
  %9 = load ptr, ptr %6, align 8, !tbaa !95
  %10 = getelementptr inbounds nuw ptr, ptr %9, i64 %indvars.iv
  %11 = load ptr, ptr %10, align 8, !tbaa !149
  %12 = getelementptr inbounds nuw i8, ptr %11, i64 240
  %13 = load i32, ptr %12, align 8, !tbaa !273
  switch i32 %13, label %14 [
    i32 6, label %_ZNK17btCollisionObject8isActiveEv.exit
    i32 2, label %_ZNK17btCollisionObject8isActiveEv.exit
    i32 5, label %_ZNK17btCollisionObject8isActiveEv.exit
  ]

14:                                               ; preds = %7
  invoke void @_ZN10btSoftBody13updateNormalsEv(ptr noundef nonnull align 8 dereferenceable(2064) %11)
          to label %._ZNK17btCollisionObject8isActiveEv.exit_crit_edge unwind label %15

._ZNK17btCollisionObject8isActiveEv.exit_crit_edge: ; preds = %14
  %.pre = load i32, ptr %3, align 4, !tbaa !96
  br label %_ZNK17btCollisionObject8isActiveEv.exit

15:                                               ; preds = %14
  %16 = landingpad { ptr, i32 }
          cleanup
  call void @_ZN14CProfileSampleD1Ev(ptr noundef nonnull align 1 dereferenceable(1) %2) #27
  call void @llvm.lifetime.end.p0(i64 1, ptr nonnull %2) #27
  resume { ptr, i32 } %16

_ZNK17btCollisionObject8isActiveEv.exit:          ; preds = %._ZNK17btCollisionObject8isActiveEv.exit_crit_edge, %7, %7, %7
  %17 = phi i32 [ %.pre, %._ZNK17btCollisionObject8isActiveEv.exit_crit_edge ], [ %8, %7 ], [ %8, %7 ], [ %8, %7 ]
  %indvars.iv.next = add nuw nsw i64 %indvars.iv, 1
  %18 = sext i32 %17 to i64
  %19 = icmp slt i64 %indvars.iv.next, %18
  br i1 %19, label %7, label %._crit_edge, !llvm.loop !343
}